TN:
SF:/home/ag/Studying/SemsterB/Operation System/OS_Project/ActiveObjectDP.cpp
FN:4,_ZN14ActiveObjectDPC2Ei
FN:9,_ZN14ActiveObjectDPD2Ev
FN:26,_ZN14ActiveObjectDP12setNextStageESt10shared_ptrIS_E
FN:32,_ZN14ActiveObjectDP14setTaskHandlerESt8functionIFbRiiEE
FN:37,_ZN14ActiveObjectDP7enqueueERii
FN:45,_ZN14ActiveObjectDP4workEv
FN:59,_ZZN14ActiveObjectDP4workEvENKUlvE_clEv
FN:83,_ZN14ActiveObjectDP18setPrevStageStatusEb
FN:89,_ZN14ActiveObjectDP15updateNextStageEb
FN:101,_ZN14ActiveObjectDP6notifyEv
FN:123,_ZN14ActiveObjectDP8isActiveEv
FN:128,_ZN14ActiveObjectDP12makePipeWaitERSt5mutexP6PipeDP
FN:135,_ZZN14ActiveObjectDP12makePipeWaitERSt5mutexP6PipeDPENKUlvE_clEv
FNDA:5,_ZN14ActiveObjectDP12setNextStageESt10shared_ptrIS_E
FNDA:5,_ZN14ActiveObjectDPC2Ei
FNDA:113,_ZN14ActiveObjectDP8isActiveEv
FNDA:14,_ZN14ActiveObjectDP12makePipeWaitERSt5mutexP6PipeDP
FNDA:13,_ZN14ActiveObjectDP15updateNextStageEb
FNDA:5,_ZN14ActiveObjectDP4workEv
FNDA:29,_ZN14ActiveObjectDP6notifyEv
FNDA:0,_ZN14ActiveObjectDPD2Ev
FNDA:28,_ZZN14ActiveObjectDP12makePipeWaitERSt5mutexP6PipeDPENKUlvE_clEv
FNDA:5,_ZN14ActiveObjectDP14setTaskHandlerESt8functionIFbRiiEE
FNDA:39,_ZZN14ActiveObjectDP4workEvENKUlvE_clEv
FNDA:17,_ZN14ActiveObjectDP7enqueueERii
FNDA:13,_ZN14ActiveObjectDP18setPrevStageStatusEb
FNF:13
FNH:12
DA:4,5
DA:5,5
DA:6,5
DA:7,5
DA:9,0
DA:11,0
DA:12,0
DA:13,0
DA:16,0
DA:17,0
DA:20,0
DA:21,0
DA:23,0
DA:26,5
DA:27,5
DA:28,5
DA:29,5
DA:32,5
DA:33,5
DA:34,5
DA:37,17
DA:38,17
DA:39,17
DA:40,17
DA:42,17
DA:45,5
DA:46,5
DA:49,39
DA:51,39
DA:52,22
DA:53,22
DA:55,22
DA:56,22
DA:59,22
DA:60,39
DA:63,17
DA:65,34
DA:66,0
DA:67,0
DA:68,0
DA:70,17
DA:71,17
DA:72,17
DA:73,17
DA:74,17
DA:75,13
DA:78,17
DA:83,13
DA:84,13
DA:85,7
DA:89,13
DA:90,13
DA:91,12
DA:92,12
DA:93,12
DA:94,0
DA:96,12
DA:101,29
DA:103,29
DA:104,12
DA:105,12
DA:107,0
DA:109,12
DA:110,12
DA:111,12
DA:112,12
DA:113,12
DA:114,12
DA:115,12
DA:116,17
DA:117,17
DA:118,17
DA:119,17
DA:121,29
DA:123,113
DA:124,113
DA:128,14
DA:129,14
DA:131,14
DA:132,14
DA:133,14
DA:135,42
DA:136,14
DA:138,14
DA:139,14
DA:140,0
DA:141,0
DA:143,14
LF:88
LH:72
end_of_record
TN:
SF:/home/ag/Studying/SemsterB/Operation System/OS_Project/Graph.cpp
FN:3,_ZN5GraphC2Ei
FN:7,_ZN5Graph7addEdgeEiii
FN:23,_ZN5Graph10removeEdgeEii
FN:34,_ZNK5Graph15getSizeVerticesEv
FN:39,_ZNK5Graph8getGraphEv
FN:43,_ZNK5Graph6hasMSTEv
FN:48,_ZN5Graph6setMSTESt10unique_ptrISt6vectorIS1_IiSaIiEESaIS3_EESt14default_deleteIS5_EE
FN:57,_ZNK5Graph17getMSTTotalWeightEv
FN:68,_ZNK5Graph21getMSTLongestDistanceEv
FN:101,_ZNK5Graph19getMSTAvgEdgeWeightEv
FN:120,_ZNK5Graph22getMSTShortestDistanceEv
FN:152,_ZNK5Graph8printMSTB5cxx11Ev
FN:164,_ZNK5Graph16validateVerticesEii
FNDA:10,_ZN5Graph6setMSTESt10unique_ptrISt6vectorIS1_IiSaIiEESaIS3_EESt14default_deleteIS5_EE
FNDA:6,_ZNK5Graph17getMSTTotalWeightEv
FNDA:33,_ZNK5Graph6hasMSTEv
FNDA:7,_ZNK5Graph19getMSTAvgEdgeWeightEv
FNDA:5,_ZN5Graph7addEdgeEiii
FNDA:7,_ZNK5Graph8printMSTB5cxx11Ev
FNDA:10,_ZNK5Graph8getGraphEv
FNDA:6,_ZNK5Graph22getMSTShortestDistanceEv
FNDA:6,_ZNK5Graph21getMSTLongestDistanceEv
FNDA:3,_ZN5Graph10removeEdgeEii
FNDA:8,_ZNK5Graph16validateVerticesEii
FNDA:2,_ZN5GraphC2Ei
FNDA:31,_ZNK5Graph15getSizeVerticesEv
FNF:13
FNH:13
DA:3,4
DA:4,2
DA:7,5
DA:8,5
DA:9,5
DA:10,1
DA:11,1
DA:12,1
DA:13,1
DA:15,4
DA:16,4
DA:17,4
DA:18,4
DA:23,3
DA:24,3
DA:25,3
DA:26,2
DA:27,2
DA:28,2
DA:29,2
DA:31,3
DA:34,31
DA:35,31
DA:39,10
DA:40,10
DA:43,33
DA:44,33
DA:48,10
DA:49,10
DA:50,0
DA:52,10
DA:53,10
DA:57,6
DA:58,6
DA:59,36
DA:60,90
DA:61,60
DA:64,6
DA:68,6
DA:69,6
DA:70,6
DA:73,6
DA:75,36
DA:76,180
DA:77,900
DA:78,750
DA:79,20
DA:82,20
DA:83,8
DA:90,36
DA:91,90
DA:92,60
DA:93,4
DA:97,6
DA:98,6
DA:101,7
DA:102,7
DA:103,7
DA:104,7
DA:106,42
DA:107,105
DA:108,70
DA:109,5
DA:110,5
DA:114,7
DA:115,2
DA:117,5
DA:120,6
DA:121,6
DA:122,6
DA:124,6
DA:126,36
DA:127,180
DA:128,900
DA:129,750
DA:130,20
DA:133,20
DA:134,8
DA:142,36
DA:143,90
DA:144,60
DA:145,4
DA:149,12
DA:150,6
DA:152,7
DA:153,7
DA:154,42
DA:155,105
DA:156,70
DA:157,5
DA:161,14
DA:162,7
DA:164,8
DA:165,8
DA:166,0
DA:168,8
LF:96
LH:94
end_of_record
TN:
SF:/home/ag/Studying/SemsterB/Operation System/OS_Project/Graph.hpp
FN:23,_ZN5GraphD2Ev
FNDA:2,_ZN5GraphD2Ev
FNF:1
FNH:1
DA:23,2
LF:1
LH:1
end_of_record
TN:
SF:/home/ag/Studying/SemsterB/Operation System/OS_Project/KruskalStrategy.cpp
FN:4,_ZN15KruskalStrategy8hasCycleEiiRKSt6vectorIS0_IiSaIiEESaIS2_EERS0_IbSaIbEE
FN:19,_ZN15KruskalStrategy10computeMSTERK5Graph
FNDA:5,_ZN15KruskalStrategy10computeMSTERK5Graph
FNDA:6,_ZN15KruskalStrategy8hasCycleEiiRKSt6vectorIS0_IiSaIiEESaIS2_EERS0_IbSaIbEE
FNF:2
FNH:2
DA:4,6
DA:5,6
DA:6,6
DA:7,36
DA:8,30
DA:9,6
DA:10,3
DA:11,3
DA:12,0
DA:16,6
DA:19,5
DA:20,5
DA:21,5
DA:22,5
DA:25,30
DA:26,75
DA:27,50
DA:28,3
DA:34,10
DA:36,5
DA:37,5
DA:40,8
DA:41,3
DA:42,3
DA:43,3
DA:44,3
DA:45,3
DA:48,3
DA:49,3
DA:51,0
DA:52,0
DA:55,3
DA:56,3
DA:58,3
DA:60,10
DA:61,5
LF:36
LH:33
end_of_record
TN:
SF:/home/ag/Studying/SemsterB/Operation System/OS_Project/LeaderFollowerDP.cpp
FN:12,_ZN16LeaderFollowerDPC2Ev
FN:22,_ZN16LeaderFollowerDPD2Ev
FN:44,_ZN16LeaderFollowerDP13handleRequestERi
FN:51,_ZZN16LeaderFollowerDP13handleRequestERiENKUlvE_clEv
FN:56,_ZN16LeaderFollowerDP13tasksEnqueingEv
FN:61,_ZZN16LeaderFollowerDP13tasksEnqueingEvENKUlvE_clEv
FN:94,_ZN16LeaderFollowerDP14tasksExecutionEv
FN:99,_ZZN16LeaderFollowerDP14tasksExecutionEvENKUlvE_clEv
FN:133,_ZN16LeaderFollowerDP15enqueingChoicesEi
FN:140,_ZZN16LeaderFollowerDP15enqueingChoicesEiENKUlRiiE_clES0_i
FN:146,_ZZN16LeaderFollowerDP15enqueingChoicesEiENKUlRiiE0_clES0_i
FN:151,_ZZN16LeaderFollowerDP15enqueingChoicesEiENKUlRiiE1_clES0_i
FN:160,_ZZN16LeaderFollowerDP15enqueingChoicesEiENKUlRiiE2_clES0_i
FN:165,_ZZN16LeaderFollowerDP15enqueingChoicesEiENKUlRiiE3_clES0_i
FN:185,_ZN16LeaderFollowerDP15promoteFollowerEi
FNDA:1,_ZN16LeaderFollowerDP13tasksEnqueingEv
FNDA:9,_ZZN16LeaderFollowerDP15enqueingChoicesEiENKUlRiiE0_clES0_i
FNDA:61,_ZN16LeaderFollowerDP15enqueingChoicesEi
FNDA:0,_ZN16LeaderFollowerDPD2Ev
FNDA:27,_ZZN16LeaderFollowerDP15enqueingChoicesEiENKUlRiiE2_clES0_i
FNDA:30,_ZZN16LeaderFollowerDP13tasksEnqueingEvENKUlvE_clEv
FNDA:30,_ZZN16LeaderFollowerDP14tasksExecutionEvENKUlvE_clEv
FNDA:29,_ZN16LeaderFollowerDP15promoteFollowerEi
FNDA:1,_ZN16LeaderFollowerDP13handleRequestERi
FNDA:1,_ZN16LeaderFollowerDPC2Ev
FNDA:9,_ZZN16LeaderFollowerDP15enqueingChoicesEiENKUlRiiE1_clES0_i
FNDA:2,_ZZN16LeaderFollowerDP15enqueingChoicesEiENKUlRiiE_clES0_i
FNDA:29,_ZZN16LeaderFollowerDP13handleRequestERiENKUlvE_clEv
FNDA:1,_ZN16LeaderFollowerDP14tasksExecutionEv
FNDA:1,_ZZN16LeaderFollowerDP15enqueingChoicesEiENKUlRiiE3_clES0_i
FNF:15
FNH:14
DA:12,1
DA:14,1
DA:15,1
DA:16,1
DA:17,0
DA:18,0
DA:19,0
DA:20,1
DA:22,0
DA:23,0
DA:24,0
DA:26,0
DA:27,0
DA:28,0
DA:29,0
DA:31,0
DA:34,0
DA:35,0
DA:36,0
DA:39,0
DA:40,0
DA:41,0
DA:44,1
DA:45,1
DA:46,1
DA:47,1
DA:48,1
DA:50,1
DA:51,30
DA:52,1
DA:53,1
DA:56,62
DA:58,62
DA:59,15
DA:60,15
DA:61,45
DA:62,14
DA:64,61
DA:66,61
DA:67,0
DA:68,0
DA:69,0
DA:70,0
DA:75,61
DA:76,0
DA:78,61
DA:79,61
DA:81,61
DA:82,14
DA:83,14
DA:86,0
DA:87,0
DA:88,0
DA:89,0
DA:90,61
DA:91,0
DA:94,63
DA:96,63
DA:97,15
DA:98,15
DA:99,45
DA:100,14
DA:102,62
DA:104,62
DA:105,0
DA:106,0
DA:107,0
DA:108,0
DA:112,62
DA:113,1
DA:115,61
DA:116,13
DA:117,13
DA:119,48
DA:120,48
DA:121,7
DA:122,7
DA:125,0
DA:126,0
DA:127,0
DA:128,0
DA:129,62
DA:130,0
DA:133,61
DA:134,61
DA:135,61
DA:137,61
DA:138,2
DA:140,2
DA:141,4
DA:142,2
DA:144,9
DA:146,9
DA:147,18
DA:148,9
DA:150,9
DA:151,9
DA:152,18
DA:153,9
DA:155,27
DA:160,27
DA:161,54
DA:162,27
DA:164,1
DA:165,2
DA:166,1
DA:167,2
DA:169,1
DA:170,1
DA:171,1
DA:173,13
DA:174,13
DA:175,0
DA:176,0
DA:179,47
DA:180,47
DA:181,47
DA:182,61
DA:185,29
DA:187,15
DA:188,44
DA:189,29
DA:190,29
DA:191,29
DA:192,29
LF:125
LH:87
end_of_record
TN:
SF:/home/ag/Studying/SemsterB/Operation System/OS_Project/MSTFactory.hpp
FN:17,_ZN10MSTFactory17createMSTStrategyENS_13AlgorithmTypeE
FNDA:10,_ZN10MSTFactory17createMSTStrategyENS_13AlgorithmTypeE
FNF:1
FNH:1
DA:17,10
DA:18,10
DA:19,5
DA:20,5
DA:21,5
DA:22,5
DA:23,0
DA:24,0
LF:8
LH:6
end_of_record
TN:
SF:/home/ag/Studying/SemsterB/Operation System/OS_Project/MSTStrategy.hpp
FN:10,_ZN11MSTStrategyD2Ev
FN:10,_ZN11MSTStrategyD0Ev
FNDA:0,_ZN11MSTStrategyD0Ev
FNDA:10,_ZN11MSTStrategyD2Ev
FNF:2
FNH:1
DA:10,10
LF:1
LH:1
end_of_record
TN:
SF:/home/ag/Studying/SemsterB/Operation System/OS_Project/PipeDP.cpp
FN:10,_ZN6PipeDPC2Ev
FN:14,_ZN6PipeDPD2Ev
FN:23,_ZN6PipeDP9setupPipeEv
FN:47,_ZZN6PipeDP9setupPipeEvENKUlRiiE_clES0_i
FN:54,_ZZN6PipeDP9setupPipeEvENKUlRiiE0_clES0_i
FN:61,_ZZN6PipeDP9setupPipeEvENKUlRiiE1_clES0_i
FN:68,_ZZN6PipeDP9setupPipeEvENKUlRiiE2_clES0_i
FN:74,_ZZN6PipeDP9setupPipeEvENKUlRiiE3_clES0_i
FN:87,_ZN6PipeDP13handleRequestERi
FN:134,_ZN6PipeDP20setStageActiveStatusEb
FNDA:3,_ZZN6PipeDP9setupPipeEvENKUlRiiE1_clES0_i
FNDA:1,_ZN6PipeDP13handleRequestERi
FNDA:1,_ZN6PipeDPC2Ev
FNDA:1,_ZN6PipeDP9setupPipeEv
FNDA:2,_ZZN6PipeDP9setupPipeEvENKUlRiiE_clES0_i
FNDA:0,_ZN6PipeDPD2Ev
FNDA:5,_ZZN6PipeDP9setupPipeEvENKUlRiiE0_clES0_i
FNDA:28,_ZN6PipeDP20setStageActiveStatusEb
FNDA:6,_ZZN6PipeDP9setupPipeEvENKUlRiiE2_clES0_i
FNDA:1,_ZZN6PipeDP9setupPipeEvENKUlRiiE3_clES0_i
FNF:10
FNH:9
DA:10,1
DA:11,1
DA:12,1
DA:14,0
DA:15,0
DA:16,0
DA:17,0
DA:18,0
DA:19,0
DA:20,0
DA:23,1
DA:26,1
DA:29,6
DA:30,5
DA:31,5
DA:32,5
DA:35,1
DA:38,1
DA:39,1
DA:40,1
DA:41,1
DA:42,1
DA:44,1
DA:47,1
DA:48,2
DA:49,2
DA:54,1
DA:55,5
DA:56,5
DA:57,5
DA:61,1
DA:62,3
DA:63,3
DA:68,1
DA:69,6
DA:70,6
DA:71,6
DA:74,1
DA:75,1
DA:76,1
DA:80,0
DA:81,0
DA:82,0
DA:83,0
DA:84,0
DA:85,1
DA:87,1
DA:88,18
DA:89,18
DA:91,34
DA:92,27
DA:93,19
DA:94,10
DA:95,2
DA:97,18
DA:99,18
DA:100,2
DA:101,2
DA:102,2
DA:103,5
DA:105,5
DA:106,5
DA:107,3
DA:108,3
DA:109,3
DA:110,6
DA:115,6
DA:116,6
DA:117,1
DA:118,1
DA:119,1
DA:123,102
DA:124,85
DA:125,14
DA:126,14
DA:130,17
DA:134,28
DA:135,28
DA:136,28
DA:137,28
LF:80
LH:68
end_of_record
TN:
SF:/home/ag/Studying/SemsterB/Operation System/OS_Project/PrimStrategy.cpp
FN:5,_ZN12PrimStrategy10computeMSTERK5Graph
FN:23,_ZZN12PrimStrategy10computeMSTERK5GraphENKUliE_clEi
FNDA:5,_ZN12PrimStrategy10computeMSTERK5Graph
FNDA:77,_ZZN12PrimStrategy10computeMSTERK5GraphENKUliE_clEi
FNF:2
FNH:2
DA:5,5
DA:6,5
DA:7,5
DA:9,5
DA:11,5
DA:13,5
DA:14,5
DA:15,5
DA:18,5
DA:21,5
DA:22,18
DA:23,93
DA:24,3
DA:25,3
DA:29,5
DA:31,5
DA:32,5
DA:34,13
DA:35,8
DA:36,8
DA:38,8
DA:40,8
DA:42,8
DA:44,48
DA:45,40
DA:46,40
DA:47,3
DA:48,3
DA:49,3
DA:56,10
DA:58,5
DA:59,30
DA:60,25
DA:61,25
DA:62,3
DA:63,3
DA:64,3
DA:68,5
DA:69,5
LF:39
LH:39
end_of_record
TN:
SF:/home/ag/Studying/SemsterB/Operation System/OS_Project/RequestService.cpp
FN:5,_ZN14RequestService11sendMessageERiRKNSt7__cxx1112basic_stringIcSt11char_traitsIcESaIcEEE
FN:14,_ZN14RequestService17startConversationERi
FN:54,_ZN14RequestService11createGraphERi
FN:89,_ZN14RequestService11modifyGraphERib
FN:144,_ZN14RequestService12calculateMSTERi
FN:197,_ZN14RequestService10getMSTDataERii
FN:250,_ZN14RequestService10stopClientERi
FNDA:181,_ZN14RequestService11sendMessageERiRKNSt7__cxx1112basic_stringIcSt11char_traitsIcESaIcEEE
FNDA:33,_ZN14RequestService10getMSTDataERii
FNDA:2,_ZN14RequestService10stopClientERi
FNDA:14,_ZN14RequestService11modifyGraphERib
FNDA:4,_ZN14RequestService11createGraphERi
FNDA:79,_ZN14RequestService17startConversationERi
FNDA:12,_ZN14RequestService12calculateMSTERi
FNF:7
FNH:7
DA:5,181
DA:6,181
DA:7,0
DA:8,0
DA:10,181
DA:14,79
DA:15,79
DA:16,0
DA:17,0
DA:32,158
DA:35,80
DA:36,80
DA:37,80
DA:38,80
DA:40,82
DA:41,79
DA:42,0
DA:44,1
DA:45,1
DA:46,1
DA:47,1
DA:48,79
DA:49,79
DA:50,1
DA:51,79
DA:54,4
DA:55,4
DA:56,0
DA:57,0
DA:59,4
DA:60,4
DA:61,4
DA:63,4
DA:64,4
DA:65,4
DA:67,8
DA:68,2
DA:69,2
DA:70,0
DA:73,2
DA:76,2
DA:77,2
DA:78,2
DA:80,2
DA:81,2
DA:82,2
DA:83,2
DA:84,2
DA:85,2
DA:86,4
DA:89,14
DA:90,14
DA:91,0
DA:92,0
DA:95,14
DA:96,14
DA:97,0
DA:98,0
DA:99,0
DA:100,0
DA:102,14
DA:103,14
DA:104,14
DA:106,14
DA:107,9
DA:108,9
DA:109,9
DA:110,9
DA:112,9
DA:113,4
DA:114,4
DA:115,4
DA:116,4
DA:119,5
DA:120,5
DA:121,5
DA:123,5
DA:124,5
DA:125,5
DA:127,5
DA:128,5
DA:129,2
DA:130,2
DA:131,2
DA:132,2
DA:135,3
DA:136,3
DA:137,3
DA:139,8
DA:140,8
DA:141,14
DA:144,12
DA:145,12
DA:146,0
DA:147,0
DA:150,12
DA:151,12
DA:152,0
DA:153,0
DA:154,0
DA:155,0
DA:157,12
DA:158,12
DA:159,12
DA:160,12
DA:162,12
DA:164,16
DA:165,10
DA:167,10
DA:168,0
DA:170,2
DA:171,2
DA:172,2
DA:173,2
DA:174,2
DA:176,10
DA:177,10
DA:178,5
DA:179,5
DA:180,5
DA:183,10
DA:184,10
DA:185,10
DA:186,10
DA:187,10
DA:188,10
DA:190,0
DA:192,10
DA:193,10
DA:194,12
DA:197,33
DA:198,33
DA:199,0
DA:200,0
DA:203,33
DA:204,33
DA:205,0
DA:206,0
DA:207,0
DA:208,33
DA:209,1
DA:210,1
DA:211,1
DA:212,1
DA:214,32
DA:215,32
DA:216,32
DA:217,32
DA:218,6
DA:219,6
DA:220,6
DA:221,6
DA:223,6
DA:224,6
DA:225,6
DA:226,6
DA:228,7
DA:229,7
DA:230,7
DA:231,7
DA:233,6
DA:234,6
DA:235,6
DA:236,6
DA:238,7
DA:239,7
DA:240,7
DA:241,7
DA:243,0
DA:244,0
DA:246,32
DA:247,32
DA:248,33
DA:250,2
DA:251,2
DA:252,0
DA:253,0
DA:255,2
DA:256,2
LF:179
LH:148
end_of_record
TN:
SF:/home/ag/Studying/SemsterB/Operation System/OS_Project/Server.cpp
FN:4,_ZN6ServerC2Eb
FN:22,_ZN6ServerD2Ev
FN:37,_ZN6Server5startEv
FN:74,_ZN6Server17handleConnectionsEv
FN:125,_ZN6Server18acceptClientAccessEi
FN:136,_ZZN6Server18acceptClientAccessEiENKUlRKT_E_clISt4pairIiSt10shared_ptrISt6threadEEEEDaS2_
FNDA:2,_ZN6ServerC2Eb
FNDA:2,_ZN6Server18acceptClientAccessEi
FNDA:2,_ZN6Server5startEv
FNDA:2,_ZN6ServerD2Ev
FNDA:2,_ZZN6Server18acceptClientAccessEiENKUlRKT_E_clISt4pairIiSt10shared_ptrISt6threadEEEEDaS2_
FNDA:2,_ZN6Server17handleConnectionsEv
FNF:6
FNH:6
DA:4,2
DA:5,2
DA:8,2
DA:9,1
DA:10,1
DA:12,1
DA:13,1
DA:18,2
DA:19,2
DA:22,2
DA:23,2
DA:25,2
DA:26,2
DA:28,2
DA:29,2
DA:30,2
DA:33,2
DA:34,2
DA:37,2
DA:39,2
DA:40,0
DA:41,0
DA:45,2
DA:46,2
DA:47,0
DA:48,0
DA:52,2
DA:53,2
DA:54,2
DA:57,2
DA:58,0
DA:59,0
DA:63,2
DA:64,0
DA:65,0
DA:68,2
DA:71,2
DA:72,2
DA:74,2
DA:75,2
DA:78,2
DA:79,2
DA:81,155
DA:82,2635
DA:83,155
DA:84,155
DA:87,155
DA:88,155
DA:90,155
DA:92,155
DA:93,0
DA:94,0
DA:98,155
DA:99,2
DA:100,2
DA:101,2
DA:102,2
DA:103,2
DA:104,2
DA:106,2
DA:109,153
DA:110,2
DA:111,2
DA:112,0
DA:113,0
DA:116,2
DA:117,2
DA:119,2
DA:120,2
DA:121,2
DA:122,2
DA:124,2
DA:125,2
DA:126,2
DA:128,2
DA:129,0
DA:130,0
DA:131,0
DA:134,2
DA:135,2
DA:136,2
DA:138,2
DA:139,2
DA:140,2
DA:143,2
DA:144,0
DA:146,2
DA:148,2
LF:88
LH:72
end_of_record
TN:
SF:/home/ag/Studying/SemsterB/Operation System/OS_Project/TaskQueue.cpp
FN:4,_ZN9TaskQueueD2Ev
FN:8,_ZN9TaskQueue7enqueueESt8functionIFbRiiEES1_i
FN:19,_ZN9TaskQueue11executeTaskEv
FN:32,_ZN9TaskQueue4sizeEv
FN:36,_ZNK9TaskQueue7isEmptyEv
FN:38,_ZN9TaskQueue5clearEv
FNDA:65,_ZN9TaskQueue11executeTaskEv
FNDA:12,_ZN9TaskQueue4sizeEv
FNDA:65,_ZN9TaskQueue7enqueueESt8functionIFbRiiEES1_i
FNDA:168,_ZNK9TaskQueue7isEmptyEv
FNDA:0,_ZN9TaskQueueD2Ev
FNDA:1,_ZN9TaskQueue5clearEv
FNF:6
FNH:5
DA:4,0
DA:5,0
DA:6,0
DA:8,65
DA:11,65
DA:12,65
DA:14,65
DA:15,65
DA:16,65
DA:17,65
DA:19,65
DA:20,65
DA:21,0
DA:22,0
DA:25,65
DA:26,65
DA:27,65
DA:28,65
DA:29,65
DA:32,12
DA:33,12
DA:36,168
DA:38,1
DA:39,1
DA:40,0
DA:42,1
LF:26
LH:20
end_of_record
TN:
SF:/home/ag/Studying/SemsterB/Operation System/OS_Project/main.cpp
FN:10,main
FNDA:5,main
FNF:1
FNH:1
DA:10,5
DA:11,5
DA:14,5
DA:15,9
DA:16,5
DA:17,2
DA:18,2
DA:19,2
DA:20,2
DA:21,2
DA:22,2
DA:23,1
DA:24,1
DA:25,1
DA:26,1
DA:27,1
DA:31,4
DA:32,2
DA:33,2
DA:36,2
DA:37,2
DA:39,2
LF:22
LH:22
end_of_record
